target datalayout = "e-m:e-p270:32:32-p271:32:32-p272:64:64-i64:64-i128:128-f80:128-n8:16:32:64-S128"
target triple = "x86_64-pc-linux-gnu"

@E_constr = external global ptr, align 8

; Function Attrs: nounwind uwtable
define zeroext i1 @nonconstraint_edge(ptr noundef %0) #0 {
  %2 = alloca i1, align 1
  %3 = alloca ptr, align 8
  %4 = alloca ptr, align 8
  store ptr %0, ptr %3, align 8
  %5 = load ptr, ptr @E_constr, align 8
  %6 = icmp ne ptr %5, null
  br i1 %6, label %7, label %23

7:                                                ; preds = %1
  %8 = load ptr, ptr %3, align 8
  %9 = load ptr, ptr @E_constr, align 8
  %10 = call ptr @agxget(ptr noundef %8, ptr noundef %9)
  store ptr %10, ptr %4, align 8
  %11 = icmp ne ptr %10, null
  br i1 %11, label %12, label %23

12:                                               ; preds = %7
  %13 = load ptr, ptr %4, align 8
  %14 = getelementptr inbounds i8, ptr %13, i64 0
  %15 = load i8, ptr %14, align 1
  %16 = sext i8 %15 to i32
  %17 = icmp ne i32 %16, 0
  br i1 %17, label %18, label %22

18:                                               ; preds = %12
  %19 = load ptr, ptr %4, align 8
  %20 = call zeroext i1 @mapbool(ptr noundef %19)
  br i1 %20, label %22, label %21

21:                                               ; preds = %18
  store i1 true, ptr %2, align 1
  br label %24

22:                                               ; preds = %18, %12
  br label %23

23:                                               ; preds = %22, %7, %1
  store i1 false, ptr %2, align 1
  br label %24

24:                                               ; preds = %23, %21
  %25 = load i1, ptr %2, align 1
  ret i1 %25
}