; Function Attrs: nounwind uwtable
define noundef zeroext i1 @nonconstraint_edge(ptr noundef %0) local_unnamed_addr #0 {
  %2 = load ptr, ptr @E_constr, align 8
  %.not = icmp eq ptr %2, null
  br i1 %.not, label %9, label %3

3:                                                ; preds = %1
  %4 = tail call ptr @agxget(ptr noundef %0, ptr noundef nonnull %2) #3
  %.not6 = icmp eq ptr %4, null
  br i1 %.not6, label %9, label %5

5:                                                ; preds = %3
  %6 = load i8, ptr %4, align 1
  %.not7 = icmp eq i8 %6, 0
  br i1 %.not7, label %9, label %7

7:                                                ; preds = %5
  %8 = tail call zeroext i1 @mapbool(ptr noundef nonnull %4) #3
  br i1 %8, label %9, label %10

9:                                                ; preds = %5, %7, %3, %1
  br label %10

10:                                               ; preds = %7, %9
  %.0 = phi i1 [ false, %9 ], [ true, %7 ]
  ret i1 %.0
}